target datalayout = "e-m:e-p270:32:32-p271:32:32-p272:64:64-i64:64-i128:128-f80:128-n8:16:32:64-S128"
target triple = "x86_64-pc-linux-gnu"

%class.cmBinUtilsWindowsPEGetRuntimeDependenciesTool = type { ptr, ptr }

$_ZN45cmBinUtilsWindowsPEGetRuntimeDependenciesToolD2Ev = comdat any

$_ZN45cmBinUtilsWindowsPEGetRuntimeDependenciesToolD0Ev = comdat any

$_ZTV45cmBinUtilsWindowsPEGetRuntimeDependenciesTool = comdat any

$_ZTS45cmBinUtilsWindowsPEGetRuntimeDependenciesTool = comdat any

$_ZTI45cmBinUtilsWindowsPEGetRuntimeDependenciesTool = comdat any

@_ZTV45cmBinUtilsWindowsPEGetRuntimeDependenciesTool = linkonce_odr dso_local unnamed_addr constant { [5 x ptr] } { [5 x ptr] [ptr null, ptr @_ZTI45cmBinUtilsWindowsPEGetRuntimeDependenciesTool, ptr @_ZN45cmBinUtilsWindowsPEGetRuntimeDependenciesToolD2Ev, ptr @_ZN45cmBinUtilsWindowsPEGetRuntimeDependenciesToolD0Ev, ptr @__cxa_pure_virtual] }, comdat, align 8
@_ZTVN10__cxxabiv117__class_type_infoE = external global [0 x ptr]
@_ZTS45cmBinUtilsWindowsPEGetRuntimeDependenciesTool = linkonce_odr dso_local constant [48 x i8] c"45cmBinUtilsWindowsPEGetRuntimeDependenciesTool\00", comdat, align 1
@_ZTI45cmBinUtilsWindowsPEGetRuntimeDependenciesTool = linkonce_odr dso_local constant { ptr, ptr } { ptr getelementptr inbounds (ptr, ptr @_ZTVN10__cxxabiv117__class_type_infoE, i64 2), ptr @_ZTS45cmBinUtilsWindowsPEGetRuntimeDependenciesTool }, comdat, align 8

; Function Attrs: mustprogress nounwind uwtable
define dso_local void @_ZN45cmBinUtilsWindowsPEGetRuntimeDependenciesToolC2EP26cmRuntimeDependencyArchive(ptr noundef nonnull align 8 dereferenceable(16) %0, ptr noundef %1) unnamed_addr #0 align 2 {
  %3 = alloca ptr, align 8
  %4 = alloca ptr, align 8
  store ptr %0, ptr %3, align 8
  store ptr %1, ptr %4, align 8
  %5 = load ptr, ptr %3, align 8
  store ptr getelementptr inbounds ({ [5 x ptr] }, ptr @_ZTV45cmBinUtilsWindowsPEGetRuntimeDependenciesTool, i32 0, i32 0, i32 2), ptr %5, align 8
  %6 = getelementptr inbounds %class.cmBinUtilsWindowsPEGetRuntimeDependenciesTool, ptr %5, i32 0, i32 1
  %7 = load ptr, ptr %4, align 8
  store ptr %7, ptr %6, align 8
  ret void
}

; Function Attrs: mustprogress uwtable
define dso_local void @_ZN45cmBinUtilsWindowsPEGetRuntimeDependenciesTool8SetErrorERKNSt7__cxx1112basic_stringIcSt11char_traitsIcESaIcEEE(ptr noundef nonnull align 8 dereferenceable(16) %0, ptr noundef nonnull align 8 dereferenceable(32) %1) #1 align 2 {
  %3 = alloca ptr, align 8
  %4 = alloca ptr, align 8
  store ptr %0, ptr %3, align 8
  store ptr %1, ptr %4, align 8
  %5 = load ptr, ptr %3, align 8
  %6 = getelementptr inbounds %class.cmBinUtilsWindowsPEGetRuntimeDependenciesTool, ptr %5, i32 0, i32 1
  %7 = load ptr, ptr %6, align 8
  %8 = load ptr, ptr %4, align 8
  call void @_ZN26cmRuntimeDependencyArchive8SetErrorERKNSt7__cxx1112basic_stringIcSt11char_traitsIcESaIcEEE(ptr noundef nonnull align 8 dereferenceable(440) %7, ptr noundef nonnull align 8 dereferenceable(32) %8)
  ret void
}

declare void @_ZN26cmRuntimeDependencyArchive8SetErrorERKNSt7__cxx1112basic_stringIcSt11char_traitsIcESaIcEEE(ptr noundef nonnull align 8 dereferenceable(440), ptr noundef nonnull align 8 dereferenceable(32)) #2

; Function Attrs: mustprogress nounwind uwtable
define linkonce_odr dso_local void @_ZN45cmBinUtilsWindowsPEGetRuntimeDependenciesToolD2Ev(ptr noundef nonnull align 8 dereferenceable(16) %0) unnamed_addr #0 comdat align 2 {
  %2 = alloca ptr, align 8
  store ptr %0, ptr %2, align 8
  ret void
}

; Function Attrs: mustprogress nounwind uwtable
define linkonce_odr dso_local void @_ZN45cmBinUtilsWindowsPEGetRuntimeDependenciesToolD0Ev(ptr noundef nonnull align 8 dereferenceable(16) %0) unnamed_addr #0 comdat align 2 {
  %2 = alloca ptr, align 8
  store ptr %0, ptr %2, align 8
  call void @llvm.trap() #4
  unreachable
}

declare void @__cxa_pure_virtual() unnamed_addr

; Function Attrs: cold noreturn nounwind memory(inaccessiblemem: write)
declare void @llvm.trap() #3


!llvm.module.flags = !{!0, !1, !2, !3, !4}

!0 = !{i32 1, !"wchar_size", i32 4}
!1 = !{i32 8, !"PIC Level", i32 2}
!2 = !{i32 7, !"PIE Level", i32 2}
!3 = !{i32 7, !"uwtable", i32 2}
!4 = !{i32 7, !"frame-pointer", i32 2}
